; ModuleID = 'source-C-CXX/55/1940.c'
source_filename = "source-C-CXX/55/1940.c"
target datalayout = "e-m:e-p270:32:32-p271:32:32-p272:64:64-i64:64-f80:128-n8:16:32:64-S128"
target triple = "x86_64-pc-linux-gnu"

@.str = private unnamed_addr constant [3 x i8] c"%d\00", align 1
@.str.1 = private unnamed_addr constant [4 x i8] c"%d\0A\00", align 1

; Function Attrs: nofree nounwind sspstrong uwtable
define dso_local void @main() local_unnamed_addr #0 {
  %1 = alloca i32, align 4
  %2 = bitcast i32* %1 to i8*
  call void @llvm.lifetime.start.p0i8(i64 4, i8* nonnull %2) #3
  %3 = call i32 (i8*, ...) @__isoc99_scanf(i8* getelementptr inbounds ([3 x i8], [3 x i8]* @.str, i64 0, i64 0), i32* nonnull %1)
  %4 = load i32, i32* %1, align 4, !tbaa !5
  %5 = sdiv i32 %4, 10000
  %6 = mul nsw i32 %5, -10000
  %7 = add i32 %6, %4
  %8 = sdiv i32 %7, 1000
  %9 = mul nsw i32 %8, -1000
  %10 = add i32 %9, %7
  %11 = sdiv i32 %10, 100
  %12 = mul nsw i32 %11, 100
  %13 = srem i32 %10, 100
  %14 = sdiv i32 %13, 10
  %15 = mul nsw i32 %14, 10
  %16 = srem i32 %13, 10
  store i32 %16, i32* %1, align 4, !tbaa !5
  %17 = add i32 %4, 9999
  %18 = icmp ult i32 %17, 19999
  br i1 %18, label %27, label %19

19:                                               ; preds = %0
  %20 = mul nsw i32 %8, 10
  %21 = add nsw i32 %20, %5
  %22 = add nsw i32 %21, %12
  %23 = mul nsw i32 %14, 1000
  %24 = add nsw i32 %22, %23
  %25 = mul nsw i32 %16, 10000
  %26 = add nsw i32 %24, %25
  br label %50

27:                                               ; preds = %0
  %28 = add i32 %7, 999
  %29 = icmp ult i32 %28, 1999
  br i1 %29, label %37, label %30

30:                                               ; preds = %27
  %31 = mul nsw i32 %11, 10
  %32 = add nsw i32 %31, %8
  %33 = mul nsw i32 %14, 100
  %34 = add nsw i32 %32, %33
  %35 = mul nsw i32 %16, 1000
  %36 = add nsw i32 %34, %35
  br label %50

37:                                               ; preds = %27
  %38 = add i32 %10, 99
  %39 = icmp ult i32 %38, 199
  br i1 %39, label %44, label %40

40:                                               ; preds = %37
  %41 = add nsw i32 %15, %11
  %42 = mul nsw i32 %16, 100
  %43 = add nsw i32 %41, %42
  br label %50

44:                                               ; preds = %37
  %45 = add i32 %13, 9
  %46 = icmp ult i32 %45, 19
  br i1 %46, label %50, label %47

47:                                               ; preds = %44
  %48 = mul nsw i32 %16, 10
  %49 = add nsw i32 %48, %14
  br label %50

50:                                               ; preds = %44, %30, %47, %40, %19
  %51 = phi i32 [ %36, %30 ], [ %49, %47 ], [ %43, %40 ], [ %26, %19 ], [ %16, %44 ]
  %52 = call i32 (i8*, ...) @printf(i8* nonnull dereferenceable(1) getelementptr inbounds ([4 x i8], [4 x i8]* @.str.1, i64 0, i64 0), i32 %51)
  call void @llvm.lifetime.end.p0i8(i64 4, i8* nonnull %2) #3
  ret void
}

; Function Attrs: argmemonly mustprogress nofree nosync nounwind willreturn
declare void @llvm.lifetime.start.p0i8(i64 immarg, i8* nocapture) #1

; Function Attrs: nofree nounwind
declare noundef i32 @__isoc99_scanf(i8* nocapture noundef readonly, ...) local_unnamed_addr #2

; Function Attrs: nofree nounwind
declare noundef i32 @printf(i8* nocapture noundef readonly, ...) local_unnamed_addr #2

; Function Attrs: argmemonly mustprogress nofree nosync nounwind willreturn
declare void @llvm.lifetime.end.p0i8(i64 immarg, i8* nocapture) #1


!llvm.module.flags = !{!0, !1, !2, !3}
!llvm.ident = !{!4}

!0 = !{i32 1, !"wchar_size", i32 4}
!1 = !{i32 7, !"PIC Level", i32 2}
!2 = !{i32 7, !"PIE Level", i32 2}
!3 = !{i32 7, !"uwtable", i32 1}
!4 = !{!"clang version 13.0.0"}
!5 = !{!6, !6, i64 0}
!6 = !{!"int", !7, i64 0}
!7 = !{!"omnipotent char", !8, i64 0}
!8 = !{!"Simple C/C++ TBAA"}
